target datalayout = "e-m:e-p270:32:32-p271:32:32-p272:64:64-i64:64-i128:128-f80:128-n8:16:32:64-S128"
target triple = "x86_64-pc-linux-gnu"

%struct.strbuf = type { i64, i64, ptr }
%struct.strvec = type { ptr, i64, i64 }
%struct.child_process = type { %struct.strvec, %struct.strvec, i32, i32, i64, ptr, ptr, i32, i32, i32, ptr, i16, ptr }

@__const.do_cache.buf = private unnamed_addr constant %struct.strbuf { i64 0, i64 0, ptr @strbuf_slopbuf }, align 8
@.str.18 = private unnamed_addr constant [11 x i8] c"action=%s\0A\00", align 1
@.str.19 = private unnamed_addr constant [12 x i8] c"timeout=%d\0A\00", align 1
@.str.20 = private unnamed_addr constant [27 x i8] c"unable to relay credential\00", align 1
@.str.21 = private unnamed_addr constant [34 x i8] c"unable to connect to cache daemon\00", align 1
@.str.24 = private unnamed_addr constant [25 x i8] c"credential-cache--daemon\00", align 1
@.str.25 = private unnamed_addr constant [29 x i8] c"unable to start cache daemon\00", align 1
@.str.26 = private unnamed_addr constant [45 x i8] c"unable to read result code from cache daemon\00", align 1
@.str.27 = private unnamed_addr constant [4 x i8] c"ok\0A\00", align 1
@.str.28 = private unnamed_addr constant [33 x i8] c"cache daemon did not start: %.*s\00", align 1

; Function Attrs: nounwind uwtable
define internal void @spawn_daemon(ptr noundef %0) #0 {
  %2 = alloca ptr, align 8
  %3 = alloca %struct.child_process, align 8
  %4 = alloca [128 x i8], align 16
  %5 = alloca i32, align 4
  store ptr %0, ptr %2, align 8, !tbaa !11
  call void @llvm.lifetime.start.p0(i64 120, ptr %3) #10
  call void @llvm.memcpy.p0.p0.i64(ptr align 8 %3, ptr align 8 @__const.spawn_daemon.daemon, i64 120, i1 false)
  call void @llvm.lifetime.start.p0(i64 128, ptr %4) #10
  call void @llvm.lifetime.start.p0(i64 4, ptr %5) #10
  %6 = getelementptr inbounds nuw %struct.child_process, ptr %3, i32 0, i32 0
  %7 = load ptr, ptr %2, align 8, !tbaa !11
  call void (ptr, ...) @strvec_pushl(ptr noundef %6, ptr noundef @.str.24, ptr noundef %7, ptr noundef null)
  %8 = getelementptr inbounds nuw %struct.child_process, ptr %3, i32 0, i32 11
  %9 = load i16, ptr %8, align 8
  %10 = and i16 %9, -9
  %11 = or i16 %10, 8
  store i16 %11, ptr %8, align 8
  %12 = getelementptr inbounds nuw %struct.child_process, ptr %3, i32 0, i32 11
  %13 = load i16, ptr %12, align 8
  %14 = and i16 %13, -2
  %15 = or i16 %14, 1
  store i16 %15, ptr %12, align 8
  %16 = getelementptr inbounds nuw %struct.child_process, ptr %3, i32 0, i32 8
  store i32 -1, ptr %16, align 4, !tbaa !40
  %17 = call i32 @start_command(ptr noundef %3)
  %18 = icmp ne i32 %17, 0
  br i1 %18, label %19, label %20

19:                                               ; preds = %1
  call void (ptr, ...) @die_errno(ptr noundef @.str.25) #11
  unreachable

20:                                               ; preds = %1
  %21 = getelementptr inbounds nuw %struct.child_process, ptr %3, i32 0, i32 8
  %22 = load i32, ptr %21, align 4, !tbaa !40
  %23 = getelementptr inbounds [128 x i8], ptr %4, i64 0, i64 0
  %24 = call i64 @read_in_full(i32 noundef %22, ptr noundef %23, i64 noundef 128)
  %25 = trunc i64 %24 to i32
  store i32 %25, ptr %5, align 4, !tbaa !4
  %26 = load i32, ptr %5, align 4, !tbaa !4
  %27 = icmp slt i32 %26, 0
  br i1 %27, label %28, label %29

28:                                               ; preds = %20
  call void (ptr, ...) @die_errno(ptr noundef @.str.26) #11
  unreachable

29:                                               ; preds = %20
  %30 = load i32, ptr %5, align 4, !tbaa !4
  %31 = icmp ne i32 %30, 3
  br i1 %31, label %36, label %32

32:                                               ; preds = %29
  %33 = getelementptr inbounds [128 x i8], ptr %4, i64 0, i64 0
  %34 = call i32 @memcmp(ptr noundef %33, ptr noundef @.str.27, i64 noundef 3) #12
  %35 = icmp ne i32 %34, 0
  br i1 %35, label %36, label %39

36:                                               ; preds = %32, %29
  %37 = load i32, ptr %5, align 4, !tbaa !4
  %38 = getelementptr inbounds [128 x i8], ptr %4, i64 0, i64 0
  call void (ptr, ...) @die(ptr noundef @.str.28, i32 noundef %37, ptr noundef %38) #11
  unreachable

39:                                               ; preds = %32
  call void @child_process_clear(ptr noundef %3)
  %40 = getelementptr inbounds nuw %struct.child_process, ptr %3, i32 0, i32 8
  %41 = load i32, ptr %40, align 4, !tbaa !40
  %42 = call i32 @close(i32 noundef %41)
  call void @llvm.lifetime.end.p0(i64 4, ptr %5) #10
  call void @llvm.lifetime.end.p0(i64 128, ptr %4) #10
  call void @llvm.lifetime.end.p0(i64 120, ptr %3) #10
  ret void
}

; Function Attrs: nounwind uwtable
define internal i32 @connection_fatally_broken(i32 noundef %0) #0 {
  %2 = alloca i32, align 4
  store i32 %0, ptr %2, align 4, !tbaa !4
  %3 = load i32, ptr %2, align 4, !tbaa !4
  %4 = icmp ne i32 %3, 2
  br i1 %4, label %5, label %8

5:                                                ; preds = %1
  %6 = load i32, ptr %2, align 4, !tbaa !4
  %7 = icmp ne i32 %6, 111
  br label %8

8:                                                ; preds = %5, %1
  %9 = phi i1 [ false, %1 ], [ %7, %5 ]
  %10 = zext i1 %9 to i32
  ret i32 %10
}

; Function Attrs: nounwind uwtable
define internal void @do_cache(ptr noundef %0, ptr noundef %1, i32 noundef %2, i32 noundef %3) #0 {
  %5 = alloca ptr, align 8
  %6 = alloca ptr, align 8
  %7 = alloca i32, align 4
  %8 = alloca i32, align 4
  %9 = alloca %struct.strbuf, align 8
  store ptr %0, ptr %5, align 8, !tbaa !11
  store ptr %1, ptr %6, align 8, !tbaa !11
  store i32 %2, ptr %7, align 4, !tbaa !4
  store i32 %3, ptr %8, align 4, !tbaa !4
  call void @llvm.lifetime.start.p0(i64 24, ptr %9) #10
  call void @llvm.memcpy.p0.p0.i64(ptr align 8 %9, ptr align 8 @__const.do_cache.buf, i64 24, i1 false)
  %10 = load ptr, ptr %6, align 8, !tbaa !11
  call void (ptr, ptr, ...) @strbuf_addf(ptr noundef %9, ptr noundef @.str.18, ptr noundef %10)
  %11 = load i32, ptr %7, align 4, !tbaa !4
  call void (ptr, ptr, ...) @strbuf_addf(ptr noundef %9, ptr noundef @.str.19, i32 noundef %11)
  %12 = load i32, ptr %8, align 4, !tbaa !4
  %13 = and i32 %12, 2
  %14 = icmp ne i32 %13, 0
  br i1 %14, label %15, label %20

15:                                               ; preds = %4
  %16 = call i64 @strbuf_read(ptr noundef %9, i32 noundef 0, i64 noundef 0)
  %17 = icmp slt i64 %16, 0
  br i1 %17, label %18, label %19

18:                                               ; preds = %15
  call void (ptr, ...) @die_errno(ptr noundef @.str.20) #11
  unreachable

19:                                               ; preds = %15
  br label %20

20:                                               ; preds = %19, %4
  %21 = load ptr, ptr %5, align 8, !tbaa !11
  %22 = call i32 @send_request(ptr noundef %21, ptr noundef %9)
  %23 = icmp slt i32 %22, 0
  br i1 %23, label %24, label %42

24:                                               ; preds = %20
  %25 = call ptr @__errno_location() #13
  %26 = load i32, ptr %25, align 4, !tbaa !4
  %27 = call i32 @connection_fatally_broken(i32 noundef %26)
  %28 = icmp ne i32 %27, 0
  br i1 %28, label %29, label %30

29:                                               ; preds = %24
  call void (ptr, ...) @die_errno(ptr noundef @.str.21) #11
  unreachable

30:                                               ; preds = %24
  %31 = load i32, ptr %8, align 4, !tbaa !4
  %32 = and i32 %31, 1
  %33 = icmp ne i32 %32, 0
  br i1 %33, label %34, label %41

34:                                               ; preds = %30
  %35 = load ptr, ptr %5, align 8, !tbaa !11
  call void @spawn_daemon(ptr noundef %35)
  %36 = load ptr, ptr %5, align 8, !tbaa !11
  %37 = call i32 @send_request(ptr noundef %36, ptr noundef %9)
  %38 = icmp slt i32 %37, 0
  br i1 %38, label %39, label %40

39:                                               ; preds = %34
  call void (ptr, ...) @die_errno(ptr noundef @.str.21) #11
  unreachable

40:                                               ; preds = %34
  br label %41

41:                                               ; preds = %40, %30
  br label %42

42:                                               ; preds = %41, %20
  call void @strbuf_release(ptr noundef %9)
  call void @llvm.lifetime.end.p0(i64 24, ptr %9) #10
  ret void
}