; Function Attrs: nounwind uwtable
define internal fastcc void @do_cache(ptr noundef nonnull %0, ptr noundef %1, i32 noundef %2, i32 noundef range(i32 0, 4) %3) unnamed_addr #0 {
  %5 = alloca %struct.child_process, align 8
  %6 = alloca [128 x i8], align 16
  %7 = alloca %struct.strbuf, align 8
  call void @llvm.lifetime.start.p0(i64 24, ptr nonnull %7) #12
  call void @llvm.memcpy.p0.p0.i64(ptr noundef nonnull align 8 dereferenceable(24) %7, ptr noundef nonnull align 8 dereferenceable(24) @__const.do_cache.buf, i64 24, i1 false)
  call void (ptr, ptr, ...) @strbuf_addf(ptr noundef nonnull %7, ptr noundef nonnull @.str.18, ptr noundef %1) #12
  call void (ptr, ptr, ...) @strbuf_addf(ptr noundef nonnull %7, ptr noundef nonnull @.str.19, i32 noundef %2) #12
  %.not = icmp samesign ult i32 %3, 2
  br i1 %.not, label %12, label %8

8:                                                ; preds = %4
  %9 = call i64 @strbuf_read(ptr noundef nonnull %7, i32 noundef 0, i64 noundef 0) #12
  %10 = icmp slt i64 %9, 0
  br i1 %10, label %11, label %12

11:                                               ; preds = %8
  call void (ptr, ...) @die_errno(ptr noundef nonnull @.str.20) #13
  unreachable

12:                                               ; preds = %8, %4
  %13 = call fastcc i32 @send_request(ptr noundef %0, ptr noundef %7)
  %14 = icmp slt i32 %13, 0
  br i1 %14, label %15, label %42

15:                                               ; preds = %12
  %16 = tail call ptr @__errno_location() #15
  %17 = load i32, ptr %16, align 4, !tbaa !9
  switch i32 %17, label %18 [
    i32 111, label %19
    i32 2, label %19
  ]

18:                                               ; preds = %15
  call void (ptr, ...) @die_errno(ptr noundef nonnull @.str.21) #13
  unreachable

19:                                               ; preds = %15, %15
  %20 = and i32 %3, 1
  %.not7 = icmp eq i32 %20, 0
  br i1 %.not7, label %42, label %21

21:                                               ; preds = %19
  call void @llvm.lifetime.start.p0(i64 120, ptr nonnull %5) #12
  call void @llvm.memcpy.p0.p0.i64(ptr noundef nonnull align 8 dereferenceable(120) %5, ptr noundef nonnull align 8 dereferenceable(120) @__const.spawn_daemon.daemon, i64 120, i1 false)
  call void @llvm.lifetime.start.p0(i64 128, ptr nonnull %6) #12
  call void (ptr, ...) @strvec_pushl(ptr noundef nonnull %5, ptr noundef nonnull @.str.24, ptr noundef nonnull %0, ptr noundef null) #12
  %22 = getelementptr inbounds nuw i8, ptr %5, i64 104
  %23 = load i16, ptr %22, align 8
  %24 = or i16 %23, 9
  store i16 %24, ptr %22, align 8
  %25 = getelementptr inbounds nuw i8, ptr %5, i64 84
  store i32 -1, ptr %25, align 4, !tbaa !24
  %26 = call i32 @start_command(ptr noundef nonnull %5) #12
  %.not.i = icmp eq i32 %26, 0
  br i1 %.not.i, label %28, label %27

27:                                               ; preds = %21
  call void (ptr, ...) @die_errno(ptr noundef nonnull @.str.25) #13
  unreachable

28:                                               ; preds = %21
  %29 = load i32, ptr %25, align 4, !tbaa !24
  %30 = call i64 @read_in_full(i32 noundef %29, ptr noundef nonnull %6, i64 noundef 128) #12
  %31 = trunc i64 %30 to i32
  %32 = icmp slt i32 %31, 0
  br i1 %32, label %33, label %34

33:                                               ; preds = %28
  call void (ptr, ...) @die_errno(ptr noundef nonnull @.str.26) #13
  unreachable

34:                                               ; preds = %28
  %.not3.i = icmp eq i32 %31, 3
  br i1 %.not3.i, label %35, label %36

35:                                               ; preds = %34
  %bcmp.i = call i32 @bcmp(ptr noundef nonnull dereferenceable(3) %6, ptr noundef nonnull dereferenceable(3) @.str.27, i64 3)
  %.not4.i = icmp eq i32 %bcmp.i, 0
  br i1 %.not4.i, label %spawn_daemon.exit, label %36

36:                                               ; preds = %35, %34
  call void (ptr, ...) @die(ptr noundef nonnull @.str.28, i32 noundef %31, ptr noundef nonnull %6) #13
  unreachable

spawn_daemon.exit:                                ; preds = %35
  call void @child_process_clear(ptr noundef nonnull %5) #12
  %37 = load i32, ptr %25, align 4, !tbaa !24
  %38 = call i32 @close(i32 noundef %37) #12
  call void @llvm.lifetime.end.p0(i64 128, ptr nonnull %6) #12
  call void @llvm.lifetime.end.p0(i64 120, ptr nonnull %5) #12
  %39 = call fastcc i32 @send_request(ptr noundef %0, ptr noundef %7)
  %40 = icmp slt i32 %39, 0
  br i1 %40, label %41, label %42

41:                                               ; preds = %spawn_daemon.exit
  call void (ptr, ...) @die_errno(ptr noundef nonnull @.str.21) #13
  unreachable

42:                                               ; preds = %19, %spawn_daemon.exit, %12
  call void @strbuf_release(ptr noundef nonnull %7) #12
  call void @llvm.lifetime.end.p0(i64 24, ptr nonnull %7) #12
  ret void
}